target datalayout = "e-m:e-p270:32:32-p271:32:32-p272:64:64-i64:64-i128:128-f80:128-n8:16:32:64-S128"
target triple = "x86_64-pc-linux-gnu"

%struct.SDL_AtomicInt = type { i32 }
%struct.SDL_AudioSpec = type { i32, i32, i32 }
%struct.SDL_AudioDevice = type { ptr, ptr, %struct.SDL_AtomicInt, ptr, ptr, ptr, ptr, ptr, ptr, ptr, i32, ptr, %struct.SDL_AudioSpec, i32, ptr, %struct.SDL_AudioSpec, i32, i32, %struct.SDL_AtomicInt, %struct.SDL_AtomicInt, i8, i8, ptr, ptr, ptr, i32, ptr, i8, ptr, ptr }

@.str.14 = private unnamed_addr constant [13 x i8] c"SDLAudio%c%d\00", align 1

; Function Attrs: nounwind uwtable
define hidden ptr @SDL_GetAudioThreadName(ptr noundef %0, ptr noundef %1, i64 noundef %2) #0 {
  %4 = alloca ptr, align 8
  %5 = alloca ptr, align 8
  %6 = alloca i64, align 8
  store ptr %0, ptr %4, align 8
  store ptr %1, ptr %5, align 8
  store i64 %2, ptr %6, align 8
  %7 = load ptr, ptr %5, align 8
  %8 = load i64, ptr %6, align 8
  %9 = load ptr, ptr %4, align 8
  %10 = getelementptr inbounds nuw %struct.SDL_AudioDevice, ptr %9, i32 0, i32 20
  %11 = load i8, ptr %10, align 4, !range !5, !noundef !6
  %12 = trunc i8 %11 to i1
  %13 = select i1 %12, i32 67, i32 80
  %14 = load ptr, ptr %4, align 8
  %15 = getelementptr inbounds nuw %struct.SDL_AudioDevice, ptr %14, i32 0, i32 10
  %16 = load i32, ptr %15, align 8
  %17 = call i32 (ptr, i64, ptr, ...) @SDL_snprintf_REAL(ptr noundef %7, i64 noundef %8, ptr noundef @.str.14, i32 noundef %13, i32 noundef %16)
  %18 = load ptr, ptr %5, align 8
  ret ptr %18
}