; Function Attrs: nounwind uwtable
define hidden noundef ptr @SDL_GetAudioThreadName(ptr noundef readonly captures(none) %0, ptr noundef returned %1, i64 noundef %2) local_unnamed_addr #0 {
  %4 = getelementptr inbounds nuw i8, ptr %0, i64 148
  %5 = load i8, ptr %4, align 4, !range !6, !noundef !7
  %6 = trunc nuw i8 %5 to i1
  %7 = select i1 %6, i32 67, i32 80
  %8 = getelementptr inbounds nuw i8, ptr %0, i64 80
  %9 = load i32, ptr %8, align 8
  %10 = tail call i32 (ptr, i64, ptr, ...) @SDL_snprintf_REAL(ptr noundef %1, i64 noundef %2, ptr noundef nonnull @.str.14, i32 noundef %7, i32 noundef %9) #14
  ret ptr %1
}